target datalayout = "e-m:e-p270:32:32-p271:32:32-p272:64:64-i64:64-i128:128-f80:128-n8:16:32:64-S128"
target triple = "x86_64-pc-linux-gnu"

; Function Attrs: mustprogress nounwind uwtable
define hidden void @_ZN6google8protobuf8internal12ExtensionSet13DeleteFlatMapEPKNS2_8KeyValueEt(ptr noundef %0, i16 noundef zeroext %1) #4 align 2 {
  %3 = alloca ptr, align 8
  %4 = alloca i16, align 2
  store ptr %0, ptr %3, align 8, !tbaa !56
  store i16 %1, ptr %4, align 2, !tbaa !58
  %5 = load ptr, ptr %3, align 8, !tbaa !56
  %6 = icmp eq ptr %5, null
  br i1 %6, label %8, label %7

7:                                                ; preds = %2
  call void @_ZdaPv(ptr noundef %5) #26
  br label %8

8:                                                ; preds = %7, %2
  ret void
}