; Function Attrs: mustprogress nounwind uwtable
define hidden void @_ZN6google8protobuf8internal12ExtensionSet13DeleteFlatMapEPKNS2_8KeyValueEt(ptr noundef %0, i16 noundef zeroext %1) local_unnamed_addr #10 align 2 {
  %3 = icmp eq ptr %0, null
  br i1 %3, label %5, label %4

4:                                                ; preds = %2
  tail call void @_ZdaPv(ptr noundef nonnull %0) #33
  br label %5

5:                                                ; preds = %4, %2
  ret void
}